target datalayout = "e-m:e-p270:32:32-p271:32:32-p272:64:64-i64:64-i128:128-f80:128-n8:16:32:64-S128"
target triple = "x86_64-pc-linux-gnu"

%struct.ggml_backend_i = type { ptr, ptr, ptr, ptr, ptr, ptr, ptr, ptr, ptr, ptr, ptr, ptr, ptr }
%struct.ggml_backend_cpu_context = type { i32, ptr, ptr, i64, ptr, ptr }
%struct.ggml_backend = type { ptr, %struct.ggml_backend_i, ptr, ptr }
%struct.ggml_cplan = type { i64, ptr, i32, ptr, ptr, ptr }

; Function Attrs: mustprogress uwtable
define internal noundef i32 @_ZL30ggml_backend_cpu_graph_computeP12ggml_backendP11ggml_cgraph(ptr noundef %0, ptr noundef %1) #0 {
  %3 = alloca i32, align 4
  %4 = alloca ptr, align 8
  %5 = alloca ptr, align 8
  %6 = alloca ptr, align 8
  %7 = alloca %struct.ggml_cplan, align 8
  %8 = alloca i32, align 4
  store ptr %0, ptr %4, align 8, !tbaa !61
  store ptr %1, ptr %5, align 8, !tbaa !63
  call void @llvm.lifetime.start.p0(i64 8, ptr %6) #1
  %9 = load ptr, ptr %4, align 8, !tbaa !61
  %10 = getelementptr inbounds nuw %struct.ggml_backend, ptr %9, i32 0, i32 3
  %11 = load ptr, ptr %10, align 8, !tbaa !60
  store ptr %11, ptr %6, align 8, !tbaa !43
  call void @llvm.lifetime.start.p0(i64 48, ptr %7) #1
  %12 = load ptr, ptr %5, align 8, !tbaa !63
  %13 = load ptr, ptr %6, align 8, !tbaa !43
  %14 = getelementptr inbounds nuw %struct.ggml_backend_cpu_context, ptr %13, i32 0, i32 0
  %15 = load i32, ptr %14, align 8, !tbaa !45
  %16 = load ptr, ptr %6, align 8, !tbaa !43
  %17 = getelementptr inbounds nuw %struct.ggml_backend_cpu_context, ptr %16, i32 0, i32 1
  %18 = load ptr, ptr %17, align 8, !tbaa !49
  call void @ggml_graph_plan(ptr dead_on_unwind writable sret(%struct.ggml_cplan) align 8 %7, ptr noundef %12, i32 noundef %15, ptr noundef %18)
  %19 = load ptr, ptr %6, align 8, !tbaa !43
  %20 = getelementptr inbounds nuw %struct.ggml_backend_cpu_context, ptr %19, i32 0, i32 3
  %21 = load i64, ptr %20, align 8, !tbaa !51
  %22 = getelementptr inbounds nuw %struct.ggml_cplan, ptr %7, i32 0, i32 0
  %23 = load i64, ptr %22, align 8, !tbaa !85
  %24 = icmp ult i64 %21, %23
  br i1 %24, label %25, label %49

25:                                               ; preds = %2
  %26 = load ptr, ptr %6, align 8, !tbaa !43
  %27 = getelementptr inbounds nuw %struct.ggml_backend_cpu_context, ptr %26, i32 0, i32 2
  %28 = load ptr, ptr %27, align 8, !tbaa !50
  %29 = icmp eq ptr %28, null
  br i1 %29, label %31, label %30

30:                                               ; preds = %25
  call void @_ZdaPv(ptr noundef %28) #18
  br label %31

31:                                               ; preds = %30, %25
  %32 = getelementptr inbounds nuw %struct.ggml_cplan, ptr %7, i32 0, i32 0
  %33 = load i64, ptr %32, align 8, !tbaa !85
  %34 = call noalias noundef nonnull ptr @_Znam(i64 noundef %33) #17
  %35 = load ptr, ptr %6, align 8, !tbaa !43
  %36 = getelementptr inbounds nuw %struct.ggml_backend_cpu_context, ptr %35, i32 0, i32 2
  store ptr %34, ptr %36, align 8, !tbaa !50
  %37 = load ptr, ptr %6, align 8, !tbaa !43
  %38 = getelementptr inbounds nuw %struct.ggml_backend_cpu_context, ptr %37, i32 0, i32 2
  %39 = load ptr, ptr %38, align 8, !tbaa !50
  %40 = icmp eq ptr %39, null
  br i1 %40, label %41, label %44

41:                                               ; preds = %31
  %42 = load ptr, ptr %6, align 8, !tbaa !43
  %43 = getelementptr inbounds nuw %struct.ggml_backend_cpu_context, ptr %42, i32 0, i32 3
  store i64 0, ptr %43, align 8, !tbaa !51
  store i32 -2, ptr %3, align 4
  store i32 1, ptr %8, align 4
  br label %64

44:                                               ; preds = %31
  %45 = getelementptr inbounds nuw %struct.ggml_cplan, ptr %7, i32 0, i32 0
  %46 = load i64, ptr %45, align 8, !tbaa !85
  %47 = load ptr, ptr %6, align 8, !tbaa !43
  %48 = getelementptr inbounds nuw %struct.ggml_backend_cpu_context, ptr %47, i32 0, i32 3
  store i64 %46, ptr %48, align 8, !tbaa !51
  br label %49

49:                                               ; preds = %44, %2
  %50 = load ptr, ptr %6, align 8, !tbaa !43
  %51 = getelementptr inbounds nuw %struct.ggml_backend_cpu_context, ptr %50, i32 0, i32 2
  %52 = load ptr, ptr %51, align 8, !tbaa !50
  %53 = getelementptr inbounds nuw %struct.ggml_cplan, ptr %7, i32 0, i32 1
  store ptr %52, ptr %53, align 8, !tbaa !86
  %54 = load ptr, ptr %6, align 8, !tbaa !43
  %55 = getelementptr inbounds nuw %struct.ggml_backend_cpu_context, ptr %54, i32 0, i32 4
  %56 = load ptr, ptr %55, align 8, !tbaa !52
  %57 = getelementptr inbounds nuw %struct.ggml_cplan, ptr %7, i32 0, i32 4
  store ptr %56, ptr %57, align 8, !tbaa !87
  %58 = load ptr, ptr %6, align 8, !tbaa !43
  %59 = getelementptr inbounds nuw %struct.ggml_backend_cpu_context, ptr %58, i32 0, i32 5
  %60 = load ptr, ptr %59, align 8, !tbaa !53
  %61 = getelementptr inbounds nuw %struct.ggml_cplan, ptr %7, i32 0, i32 5
  store ptr %60, ptr %61, align 8, !tbaa !88
  %62 = load ptr, ptr %5, align 8, !tbaa !63
  %63 = call i32 @ggml_graph_compute(ptr noundef %62, ptr noundef %7)
  store i32 %63, ptr %3, align 4
  store i32 1, ptr %8, align 4
  br label %64

64:                                               ; preds = %49, %41
  call void @llvm.lifetime.end.p0(i64 48, ptr %7) #1
  call void @llvm.lifetime.end.p0(i64 8, ptr %6) #1
  %65 = load i32, ptr %3, align 4
  ret i32 %65
}