; Function Attrs: mustprogress uwtable
define internal noundef i32 @_ZL30ggml_backend_cpu_graph_computeP12ggml_backendP11ggml_cgraph(ptr noundef readonly captures(none) %0, ptr noundef %1) #0 {
  %3 = alloca %struct.ggml_cplan, align 8
  %4 = getelementptr inbounds nuw i8, ptr %0, i64 120
  %5 = load ptr, ptr %4, align 8, !tbaa !29
  call void @llvm.lifetime.start.p0(i64 48, ptr nonnull %3) #25
  %6 = load i32, ptr %5, align 8, !tbaa !16
  %7 = getelementptr inbounds nuw i8, ptr %5, i64 8
  %8 = load ptr, ptr %7, align 8, !tbaa !31
  call void @ggml_graph_plan(ptr dead_on_unwind nonnull writable sret(%struct.ggml_cplan) align 8 %3, ptr noundef %1, i32 noundef %6, ptr noundef %8)
  %9 = getelementptr inbounds nuw i8, ptr %5, i64 24
  %10 = load i64, ptr %9, align 8, !tbaa !54
  %11 = load i64, ptr %3, align 8, !tbaa !55
  %12 = icmp ult i64 %10, %11
  %13 = getelementptr inbounds nuw i8, ptr %5, i64 16
  %14 = load ptr, ptr %13, align 8, !tbaa !30
  br i1 %12, label %15, label %._crit_edge

15:                                               ; preds = %2
  %16 = icmp eq ptr %14, null
  br i1 %16, label %18, label %17

17:                                               ; preds = %15
  call void @_ZdaPv(ptr noundef nonnull %14) #28
  %.pre = load i64, ptr %3, align 8, !tbaa !55
  br label %18

18:                                               ; preds = %17, %15
  %19 = phi i64 [ %.pre, %17 ], [ %11, %15 ]
  %20 = call noalias noundef nonnull ptr @_Znam(i64 noundef %19) #27
  store ptr %20, ptr %13, align 8, !tbaa !30
  store i64 %19, ptr %9, align 8, !tbaa !54
  br label %._crit_edge

._crit_edge:                                      ; preds = %2, %18
  %21 = phi ptr [ %20, %18 ], [ %14, %2 ]
  %22 = getelementptr inbounds nuw i8, ptr %3, i64 8
  store ptr %21, ptr %22, align 8, !tbaa !56
  %23 = getelementptr inbounds nuw i8, ptr %5, i64 32
  %24 = load ptr, ptr %23, align 8, !tbaa !50
  %25 = getelementptr inbounds nuw i8, ptr %3, i64 32
  store ptr %24, ptr %25, align 8, !tbaa !57
  %26 = getelementptr inbounds nuw i8, ptr %5, i64 40
  %27 = load ptr, ptr %26, align 8, !tbaa !52
  %28 = getelementptr inbounds nuw i8, ptr %3, i64 40
  store ptr %27, ptr %28, align 8, !tbaa !58
  %29 = call i32 @ggml_graph_compute(ptr noundef %1, ptr noundef nonnull %3)
  call void @llvm.lifetime.end.p0(i64 48, ptr nonnull %3) #25
  ret i32 %29
}